target datalayout = "e-m:e-p270:32:32-p271:32:32-p272:64:64-i64:64-i128:128-f80:128-n8:16:32:64-S128"
target triple = "x86_64-pc-linux-gnu"

%struct.bio_st = type { ptr, ptr, ptr, i32, i32, i32, i32, i32, i32, ptr, ptr, i64, i64 }
%struct.bio_connect_st = type { i32, ptr, ptr, i32, i16, %struct.sockaddr_storage, i32, ptr }
%struct.sockaddr_storage = type { i16, [118 x i8], i64 }

; Function Attrs: nounwind uwtable
define internal i64 @conn_callback_ctrl(ptr noundef %0, i32 noundef %1, ptr noundef %2) #0 {
  %4 = alloca ptr, align 8
  %5 = alloca i32, align 4
  %6 = alloca ptr, align 8
  %7 = alloca i64, align 8
  %8 = alloca ptr, align 8
  store ptr %0, ptr %4, align 8, !tbaa !11
  store i32 %1, ptr %5, align 4, !tbaa !13
  store ptr %2, ptr %6, align 8, !tbaa !27
  call void @llvm.lifetime.start.p0(i64 8, ptr %7) #7
  store i64 1, ptr %7, align 8, !tbaa !26
  call void @llvm.lifetime.start.p0(i64 8, ptr %8) #7
  %9 = load ptr, ptr %4, align 8, !tbaa !11
  %10 = getelementptr inbounds nuw %struct.bio_st, ptr %9, i32 0, i32 9
  %11 = load ptr, ptr %10, align 8, !tbaa !15
  store ptr %11, ptr %8, align 8, !tbaa !19
  %12 = load i32, ptr %5, align 4, !tbaa !13
  switch i32 %12, label %17 [
    i32 14, label %13
  ]

13:                                               ; preds = %3
  %14 = load ptr, ptr %6, align 8, !tbaa !27
  %15 = load ptr, ptr %8, align 8, !tbaa !19
  %16 = getelementptr inbounds nuw %struct.bio_connect_st, ptr %15, i32 0, i32 7
  store ptr %14, ptr %16, align 8, !tbaa !36
  br label %18

17:                                               ; preds = %3
  store i64 0, ptr %7, align 8, !tbaa !26
  br label %18

18:                                               ; preds = %17, %13
  %19 = load i64, ptr %7, align 8, !tbaa !26
  call void @llvm.lifetime.end.p0(i64 8, ptr %8) #7
  call void @llvm.lifetime.end.p0(i64 8, ptr %7) #7
  ret i64 %19
}