; Function Attrs: mustprogress nofree norecurse nosync nounwind willreturn memory(write, argmem: readwrite, inaccessiblemem: none) uwtable
define internal range(i64 0, 2) i64 @conn_callback_ctrl(ptr noundef readonly captures(none) %0, i32 noundef %1, ptr noundef %2) #5 {
  %cond = icmp eq i32 %1, 14
  br i1 %cond, label %4, label %8

4:                                                ; preds = %3
  %5 = getelementptr inbounds nuw i8, ptr %0, i64 48
  %6 = load ptr, ptr %5, align 8, !tbaa !6
  %7 = getelementptr inbounds nuw i8, ptr %6, i64 168
  store ptr %2, ptr %7, align 8, !tbaa !28
  br label %8

8:                                                ; preds = %3, %4
  %.0 = phi i64 [ 1, %4 ], [ 0, %3 ]
  ret i64 %.0
}